target datalayout = "e-m:e-p270:32:32-p271:32:32-p272:64:64-i64:64-i128:128-f80:128-n8:16:32:64-S128"
target triple = "x86_64-pc-linux-gnu"

%struct.WavpackContext = type { ptr, ptr, i32, i32, i32, i32, ptr, ptr, ptr, ptr, i32 }
%struct.GetByteContext = type { ptr, ptr, ptr }
%struct.WavpackFrameContext = type { ptr, i32, i32, i32, i32, i32, %struct.GetBitContext, i32, i32, %struct.GetBitContext, i32, i32, [16 x %struct.Decorr], i32, i32, i32, i32, i32, i32, i32, i32, i32, i32, i32, i32, i32, i32, i32, [2 x %struct.WvChannel], %struct.GetByteContext, [256 x i32], [40960 x i8], [32 x [256 x i16]], [32 x [256 x i8]], [32 x ptr] }
%struct.GetBitContext = type { ptr, ptr, i32, i32, i32 }
%struct.Decorr = type { i32, i32, i32, i32, [8 x i32], [8 x i32], i32, i32 }
%struct.WvChannel = type { [3 x i32], i32, i32, i32, i32 }

; Function Attrs: cold nounwind optsize uwtable
define internal i32 @wv_alloc_frame_context(ptr noundef %0) #1 {
  %2 = alloca i32, align 4
  %3 = alloca ptr, align 8
  %4 = alloca ptr, align 8
  %5 = alloca i32, align 4
  store ptr %0, ptr %3, align 8, !tbaa !29
  call void @llvm.lifetime.start.p0(i64 8, ptr %4) #11
  %6 = load ptr, ptr %3, align 8, !tbaa !29
  %7 = getelementptr inbounds nuw %struct.WavpackContext, ptr %6, i32 0, i32 1
  %8 = load ptr, ptr %7, align 8, !tbaa !61
  %9 = load ptr, ptr %3, align 8, !tbaa !29
  %10 = getelementptr inbounds nuw %struct.WavpackContext, ptr %9, i32 0, i32 2
  %11 = load i32, ptr %10, align 8, !tbaa !40
  %12 = add nsw i32 %11, 1
  %13 = sext i32 %12 to i64
  %14 = call ptr @av_realloc_array(ptr noundef %8, i64 noundef %13, i64 noundef 8)
  store ptr %14, ptr %4, align 8, !tbaa !128
  %15 = load ptr, ptr %4, align 8, !tbaa !128
  %16 = icmp ne ptr %15, null
  br i1 %16, label %18, label %17

17:                                               ; preds = %1
  store i32 -1, ptr %2, align 4
  store i32 1, ptr %5, align 4
  br label %61

18:                                               ; preds = %1
  %19 = load ptr, ptr %4, align 8, !tbaa !128
  %20 = load ptr, ptr %3, align 8, !tbaa !29
  %21 = getelementptr inbounds nuw %struct.WavpackContext, ptr %20, i32 0, i32 1
  store ptr %19, ptr %21, align 8, !tbaa !61
  %22 = call noalias ptr @av_mallocz(i64 noundef 68480)
  %23 = load ptr, ptr %3, align 8, !tbaa !29
  %24 = getelementptr inbounds nuw %struct.WavpackContext, ptr %23, i32 0, i32 1
  %25 = load ptr, ptr %24, align 8, !tbaa !61
  %26 = load ptr, ptr %3, align 8, !tbaa !29
  %27 = getelementptr inbounds nuw %struct.WavpackContext, ptr %26, i32 0, i32 2
  %28 = load i32, ptr %27, align 8, !tbaa !40
  %29 = sext i32 %28 to i64
  %30 = getelementptr inbounds ptr, ptr %25, i64 %29
  store ptr %22, ptr %30, align 8, !tbaa !68
  %31 = load ptr, ptr %3, align 8, !tbaa !29
  %32 = getelementptr inbounds nuw %struct.WavpackContext, ptr %31, i32 0, i32 1
  %33 = load ptr, ptr %32, align 8, !tbaa !61
  %34 = load ptr, ptr %3, align 8, !tbaa !29
  %35 = getelementptr inbounds nuw %struct.WavpackContext, ptr %34, i32 0, i32 2
  %36 = load i32, ptr %35, align 8, !tbaa !40
  %37 = sext i32 %36 to i64
  %38 = getelementptr inbounds ptr, ptr %33, i64 %37
  %39 = load ptr, ptr %38, align 8, !tbaa !68
  %40 = icmp ne ptr %39, null
  br i1 %40, label %42, label %41

41:                                               ; preds = %18
  store i32 -1, ptr %2, align 4
  store i32 1, ptr %5, align 4
  br label %61

42:                                               ; preds = %18
  %43 = load ptr, ptr %3, align 8, !tbaa !29
  %44 = getelementptr inbounds nuw %struct.WavpackContext, ptr %43, i32 0, i32 2
  %45 = load i32, ptr %44, align 8, !tbaa !40
  %46 = add nsw i32 %45, 1
  store i32 %46, ptr %44, align 8, !tbaa !40
  %47 = load ptr, ptr %3, align 8, !tbaa !29
  %48 = getelementptr inbounds nuw %struct.WavpackContext, ptr %47, i32 0, i32 0
  %49 = load ptr, ptr %48, align 8, !tbaa !39
  %50 = load ptr, ptr %3, align 8, !tbaa !29
  %51 = getelementptr inbounds nuw %struct.WavpackContext, ptr %50, i32 0, i32 1
  %52 = load ptr, ptr %51, align 8, !tbaa !61
  %53 = load ptr, ptr %3, align 8, !tbaa !29
  %54 = getelementptr inbounds nuw %struct.WavpackContext, ptr %53, i32 0, i32 2
  %55 = load i32, ptr %54, align 8, !tbaa !40
  %56 = sub nsw i32 %55, 1
  %57 = sext i32 %56 to i64
  %58 = getelementptr inbounds ptr, ptr %52, i64 %57
  %59 = load ptr, ptr %58, align 8, !tbaa !68
  %60 = getelementptr inbounds nuw %struct.WavpackFrameContext, ptr %59, i32 0, i32 0
  store ptr %49, ptr %60, align 8, !tbaa !129
  store i32 0, ptr %2, align 4
  store i32 1, ptr %5, align 4
  br label %61

61:                                               ; preds = %42, %41, %17
  call void @llvm.lifetime.end.p0(i64 8, ptr %4) #11
  %62 = load i32, ptr %2, align 4
  ret i32 %62
}