; Function Attrs: cold nounwind optsize uwtable
define internal fastcc range(i32 -1, 1) i32 @wv_alloc_frame_context(ptr noundef captures(none) %0) unnamed_addr #1 {
  %2 = getelementptr inbounds nuw i8, ptr %0, i64 8
  %3 = load ptr, ptr %2, align 8, !tbaa !46
  %4 = getelementptr inbounds nuw i8, ptr %0, i64 16
  %5 = load i32, ptr %4, align 8, !tbaa !37
  %6 = add nsw i32 %5, 1
  %7 = sext i32 %6 to i64
  %8 = tail call ptr @av_realloc_array(ptr noundef %3, i64 noundef %7, i64 noundef 8) #12
  %.not = icmp eq ptr %8, null
  br i1 %.not, label %18, label %9

9:                                                ; preds = %1
  store ptr %8, ptr %2, align 8, !tbaa !46
  %10 = tail call noalias ptr @av_mallocz(i64 noundef 68480) #12
  %11 = load ptr, ptr %2, align 8, !tbaa !46
  %12 = load i32, ptr %4, align 8, !tbaa !37
  %13 = sext i32 %12 to i64
  %14 = getelementptr inbounds ptr, ptr %11, i64 %13
  store ptr %10, ptr %14, align 8, !tbaa !47
  %.not14 = icmp eq ptr %10, null
  br i1 %.not14, label %18, label %15

15:                                               ; preds = %9
  %16 = add nsw i32 %12, 1
  store i32 %16, ptr %4, align 8, !tbaa !37
  %17 = load ptr, ptr %0, align 8, !tbaa !36
  store ptr %17, ptr %10, align 8, !tbaa !122
  br label %18

18:                                               ; preds = %9, %1, %15
  %.0 = phi i32 [ 0, %15 ], [ -1, %1 ], [ -1, %9 ]
  ret i32 %.0
}